target datalayout = "e-m:e-p270:32:32-p271:32:32-p272:64:64-i64:64-i128:128-f80:128-n8:16:32:64-S128"
target triple = "x86_64-pc-linux-gnu"

@.str.1 = private unnamed_addr constant [5 x i8] c"fd.c\00", align 1
@.str.63 = private unnamed_addr constant [75 x i8] c"syncing data directory (fsync), elapsed time: %ld.%02d s, current path: %s\00", align 1
@__func__.datadir_fsync_fname = private unnamed_addr constant [20 x i8] c"datadir_fsync_fname\00", align 1

; Function Attrs: nounwind uwtable
define internal void @datadir_fsync_fname(ptr noundef %0, i1 noundef zeroext %1, i32 noundef %2) #0 {
  %4 = alloca ptr, align 8
  %5 = alloca i8, align 1
  %6 = alloca i32, align 4
  %7 = alloca i64, align 8
  %8 = alloca i32, align 4
  store ptr %0, ptr %4, align 8
  %9 = zext i1 %1 to i8
  store i8 %9, ptr %5, align 1
  store i32 %2, ptr %6, align 4
  br label %10

10:                                               ; preds = %3
  call void @llvm.lifetime.start.p0(i64 8, ptr %7) #14
  call void @llvm.lifetime.start.p0(i64 4, ptr %8) #14
  %11 = call zeroext i1 @has_startup_progress_timeout_expired(ptr noundef %7, ptr noundef %8)
  br i1 %11, label %12, label %27

12:                                               ; preds = %10
  br label %13

13:                                               ; preds = %12
  br i1 false, label %14, label %16

14:                                               ; preds = %13
  %15 = call zeroext i1 @errstart_cold(i32 noundef 15, ptr noundef null) #16
  br i1 %15, label %18, label %24

16:                                               ; preds = %13
  %17 = call zeroext i1 @errstart(i32 noundef 15, ptr noundef null)
  br i1 %17, label %18, label %24

18:                                               ; preds = %16, %14
  %19 = load i64, ptr %7, align 8
  %20 = load i32, ptr %8, align 4
  %21 = sdiv i32 %20, 10000
  %22 = load ptr, ptr %4, align 8
  %23 = call i32 (ptr, ...) @errmsg(ptr noundef @.str.63, i64 noundef %19, i32 noundef %21, ptr noundef %22)
  call void @errfinish(ptr noundef @.str.1, i32 noundef 3785, ptr noundef @__func__.datadir_fsync_fname)
  br label %24

24:                                               ; preds = %18, %16, %14
  br label %25

25:                                               ; preds = %24
  br label %26

26:                                               ; preds = %25
  br label %27

27:                                               ; preds = %26, %10
  call void @llvm.lifetime.end.p0(i64 4, ptr %8) #14
  call void @llvm.lifetime.end.p0(i64 8, ptr %7) #14
  br label %28

28:                                               ; preds = %27
  %29 = load ptr, ptr %4, align 8
  %30 = load i8, ptr %5, align 1, !range !4, !noundef !5
  %31 = trunc i8 %30 to i1
  %32 = load i32, ptr %6, align 4
  %33 = call i32 @fsync_fname_ext(ptr noundef %29, i1 noundef zeroext %31, i1 noundef zeroext true, i32 noundef %32)
  ret void
}