; Function Attrs: nounwind uwtable
define internal void @datadir_fsync_fname(ptr noundef %0, i1 noundef zeroext %1, i32 noundef %2) #0 {
  %4 = alloca i64, align 8
  %5 = alloca i32, align 4
  call void @llvm.lifetime.start.p0(i64 8, ptr nonnull %4) #25
  call void @llvm.lifetime.start.p0(i64 4, ptr nonnull %5) #25
  %6 = call zeroext i1 @has_startup_progress_timeout_expired(ptr noundef nonnull %4, ptr noundef nonnull %5) #25
  br i1 %6, label %7, label %14

7:                                                ; preds = %3
  %8 = call zeroext i1 @errstart(i32 noundef 15, ptr noundef null) #25
  br i1 %8, label %9, label %14

9:                                                ; preds = %7
  %10 = load i64, ptr %4, align 8
  %11 = load i32, ptr %5, align 4
  %12 = sdiv i32 %11, 10000
  %13 = call i32 (ptr, ...) @errmsg(ptr noundef nonnull @.str.63, i64 noundef %10, i32 noundef %12, ptr noundef %0) #25
  call void @errfinish(ptr noundef nonnull @.str.1, i32 noundef 3785, ptr noundef nonnull @__func__.datadir_fsync_fname) #25
  br label %14

14:                                               ; preds = %7, %9, %3
  call void @llvm.lifetime.end.p0(i64 4, ptr nonnull %5) #25
  call void @llvm.lifetime.end.p0(i64 8, ptr nonnull %4) #25
  %15 = call i32 @fsync_fname_ext(ptr noundef %0, i1 noundef zeroext %1, i1 noundef zeroext true, i32 noundef %2)
  ret void
}